target datalayout = "e-m:e-p270:32:32-p271:32:32-p272:64:64-i64:64-i128:128-f80:128-n8:16:32:64-S128"
target triple = "x86_64-pc-linux-gnu"

%struct.filter = type { [65536 x i8], [65536 x i8], i64 }

; Function Attrs: nounwind uwtable
define i64 @filter_search(ptr noundef %0, ptr noundef %1, i64 noundef %2) #0 {
  %4 = alloca i64, align 8
  %5 = alloca ptr, align 8
  %6 = alloca ptr, align 8
  %7 = alloca i64, align 8
  %8 = alloca i64, align 8
  %9 = alloca i8, align 1
  %10 = alloca ptr, align 8
  %11 = alloca ptr, align 8
  %12 = alloca i16, align 2
  %13 = alloca i8, align 1
  store ptr %0, ptr %5, align 8
  store ptr %1, ptr %6, align 8
  store i64 %2, ptr %7, align 8
  store i8 -1, ptr %9, align 1
  %14 = load ptr, ptr %5, align 8
  %15 = getelementptr inbounds %struct.filter, ptr %14, i32 0, i32 0
  %16 = getelementptr inbounds [65536 x i8], ptr %15, i64 0, i64 0
  store ptr %16, ptr %10, align 8
  %17 = load ptr, ptr %5, align 8
  %18 = getelementptr inbounds %struct.filter, ptr %17, i32 0, i32 1
  %19 = getelementptr inbounds [65536 x i8], ptr %18, i64 0, i64 0
  store ptr %19, ptr %11, align 8
  %20 = load i64, ptr %7, align 8
  %21 = icmp ult i64 %20, 2
  br i1 %21, label %22, label %23

22:                                               ; preds = %3
  store i64 -1, ptr %4, align 8
  br label %72

23:                                               ; preds = %3
  store i64 0, ptr %8, align 8
  br label %24

24:                                               ; preds = %68, %23
  %25 = load i64, ptr %8, align 8
  %26 = load i64, ptr %7, align 8
  %27 = sub i64 %26, 1
  %28 = icmp ult i64 %25, %27
  br i1 %28, label %29, label %71

29:                                               ; preds = %24
  %30 = load ptr, ptr %6, align 8
  %31 = load i64, ptr %8, align 8
  %32 = getelementptr inbounds i8, ptr %30, i64 %31
  %33 = load i16, ptr %32, align 1
  store i16 %33, ptr %12, align 2
  %34 = load i8, ptr %9, align 1
  %35 = zext i8 %34 to i32
  %36 = shl i32 %35, 1
  %37 = load ptr, ptr %10, align 8
  %38 = load i16, ptr %12, align 2
  %39 = zext i16 %38 to i64
  %40 = getelementptr inbounds i8, ptr %37, i64 %39
  %41 = load i8, ptr %40, align 1
  %42 = zext i8 %41 to i32
  %43 = or i32 %36, %42
  %44 = trunc i32 %43 to i8
  store i8 %44, ptr %9, align 1
  %45 = load i8, ptr %9, align 1
  %46 = zext i8 %45 to i32
  %47 = load ptr, ptr %11, align 8
  %48 = load i16, ptr %12, align 2
  %49 = zext i16 %48 to i64
  %50 = getelementptr inbounds i8, ptr %47, i64 %49
  %51 = load i8, ptr %50, align 1
  %52 = zext i8 %51 to i32
  %53 = or i32 %46, %52
  %54 = trunc i32 %53 to i8
  store i8 %54, ptr %13, align 1
  %55 = load i8, ptr %13, align 1
  %56 = zext i8 %55 to i32
  %57 = icmp ne i32 %56, 255
  br i1 %57, label %58, label %67

58:                                               ; preds = %29
  %59 = load i64, ptr %8, align 8
  %60 = icmp uge i64 %59, 8
  br i1 %60, label %61, label %64

61:                                               ; preds = %58
  %62 = load i64, ptr %8, align 8
  %63 = sub i64 %62, 8
  br label %65

64:                                               ; preds = %58
  br label %65

65:                                               ; preds = %64, %61
  %66 = phi i64 [ %63, %61 ], [ 0, %64 ]
  store i64 %66, ptr %4, align 8
  br label %72

67:                                               ; preds = %29
  br label %68

68:                                               ; preds = %67
  %69 = load i64, ptr %8, align 8
  %70 = add i64 %69, 1
  store i64 %70, ptr %8, align 8
  br label %24

71:                                               ; preds = %24
  store i64 -1, ptr %4, align 8
  br label %72

72:                                               ; preds = %71, %65, %22
  %73 = load i64, ptr %4, align 8
  ret i64 %73
}