; Function Attrs: nofree norecurse nosync nounwind memory(argmem: read) uwtable
define range(i64 -1, -10) i64 @filter_search(ptr noundef readonly captures(none) %0, ptr noundef readonly captures(none) %1, i64 noundef %2) local_unnamed_addr #6 {
  %4 = getelementptr inbounds nuw i8, ptr %0, i64 65536
  %5 = icmp ult i64 %2, 2
  br i1 %5, label %.loopexit, label %.lr.ph.preheader

.lr.ph.preheader:                                 ; preds = %3
  %6 = add i64 %2, -2
  br label %.lr.ph

.lr.ph:                                           ; preds = %.lr.ph.preheader, %19
  %.01722 = phi i64 [ %20, %19 ], [ 0, %.lr.ph.preheader ]
  %.01821 = phi i8 [ %13, %19 ], [ -1, %.lr.ph.preheader ]
  %7 = getelementptr inbounds i8, ptr %1, i64 %.01722
  %8 = load i16, ptr %7, align 1
  %9 = shl i8 %.01821, 1
  %10 = zext i16 %8 to i64
  %11 = getelementptr inbounds nuw i8, ptr %0, i64 %10
  %12 = load i8, ptr %11, align 1
  %13 = or i8 %12, %9
  %14 = getelementptr inbounds nuw i8, ptr %4, i64 %10
  %15 = load i8, ptr %14, align 1
  %16 = or i8 %15, %13
  %.not = icmp eq i8 %16, -1
  br i1 %.not, label %19, label %17

17:                                               ; preds = %.lr.ph
  %18 = tail call i64 @llvm.usub.sat.i64(i64 %.01722, i64 8)
  br label %.loopexit

19:                                               ; preds = %.lr.ph
  %20 = add nuw i64 %.01722, 1
  %exitcond.not = icmp eq i64 %.01722, %6
  br i1 %exitcond.not, label %.loopexit, label %.lr.ph

.loopexit:                                        ; preds = %19, %3, %17
  %.0 = phi i64 [ %18, %17 ], [ -1, %3 ], [ -1, %19 ]
  ret i64 %.0
}